; ModuleID = 'source-C-CXX/43/657.cpp'
source_filename = "source-C-CXX/43/657.cpp"
target datalayout = "e-m:e-p270:32:32-p271:32:32-p272:64:64-i64:64-f80:128-n8:16:32:64-S128"
target triple = "x86_64-pc-linux-gnu"

%"class.std::ios_base::Init" = type { i8 }
%"class.std::basic_istream" = type { i32 (...)**, i64, %"class.std::basic_ios" }
%"class.std::basic_ios" = type { %"class.std::ios_base", %"class.std::basic_ostream"*, i8, i8, %"class.std::basic_streambuf"*, %"class.std::ctype"*, %"class.std::num_put"*, %"class.std::num_get"* }
%"class.std::ios_base" = type { i32 (...)**, i64, i64, i32, i32, i32, %"struct.std::ios_base::_Callback_list"*, %"struct.std::ios_base::_Words", [8 x %"struct.std::ios_base::_Words"], i32, %"struct.std::ios_base::_Words"*, %"class.std::locale" }
%"struct.std::ios_base::_Callback_list" = type { %"struct.std::ios_base::_Callback_list"*, void (i32, %"class.std::ios_base"*, i32)*, i32, i32 }
%"struct.std::ios_base::_Words" = type { i8*, i64 }
%"class.std::locale" = type { %"class.std::locale::_Impl"* }
%"class.std::locale::_Impl" = type { i32, %"class.std::locale::facet"**, i64, %"class.std::locale::facet"**, i8** }
%"class.std::locale::facet" = type <{ i32 (...)**, i32, [4 x i8] }>
%"class.std::basic_ostream" = type { i32 (...)**, %"class.std::basic_ios" }
%"class.std::basic_streambuf" = type { i32 (...)**, i8*, i8*, i8*, i8*, i8*, i8*, %"class.std::locale" }
%"class.std::ctype" = type <{ %"class.std::locale::facet.base", [4 x i8], %struct.__locale_struct*, i8, [7 x i8], i32*, i32*, i16*, i8, [256 x i8], [256 x i8], i8, [6 x i8] }>
%"class.std::locale::facet.base" = type <{ i32 (...)**, i32 }>
%struct.__locale_struct = type { [13 x %struct.__locale_data*], i16*, i32*, i32*, [13 x i8*] }
%struct.__locale_data = type opaque
%"class.std::num_put" = type { %"class.std::locale::facet.base", [4 x i8] }
%"class.std::num_get" = type { %"class.std::locale::facet.base", [4 x i8] }

@_ZStL8__ioinit = internal global %"class.std::ios_base::Init" zeroinitializer, align 1
@__dso_handle = external hidden global i8
@_ZSt3cin = external global %"class.std::basic_istream", align 8
@_ZSt4cout = external global %"class.std::basic_ostream", align 8
@llvm.global_ctors = appending global [1 x { i32, void ()*, i8* }] [{ i32, void ()*, i8* } { i32 65535, void ()* @_GLOBAL__sub_I_657.cpp, i8* null }]

declare void @_ZNSt8ios_base4InitC1Ev(%"class.std::ios_base::Init"* nonnull align 1 dereferenceable(1)) unnamed_addr #0

; Function Attrs: nounwind
declare void @_ZNSt8ios_base4InitD1Ev(%"class.std::ios_base::Init"* nonnull align 1 dereferenceable(1)) unnamed_addr #1

; Function Attrs: nofree nounwind
declare i32 @__cxa_atexit(void (i8*)*, i8*, i8*) local_unnamed_addr #2

; Function Attrs: mustprogress norecurse sspstrong uwtable
define dso_local i32 @main() local_unnamed_addr #3 {
  %1 = alloca [1000 x i32], align 16
  %2 = alloca i32, align 4
  %3 = bitcast i32* %2 to i8*
  call void @llvm.lifetime.start.p0i8(i64 4, i8* nonnull %3) #8
  %4 = bitcast [1000 x i32]* %1 to i8*
  %5 = call nonnull align 8 dereferenceable(16) %"class.std::basic_istream"* @_ZNSirsERi(%"class.std::basic_istream"* nonnull align 8 dereferenceable(16) @_ZSt3cin, i32* nonnull align 4 dereferenceable(4) %2)
  %6 = bitcast %"class.std::basic_istream"* %5 to i8**
  %7 = load i8*, i8** %6, align 8, !tbaa !5
  %8 = getelementptr i8, i8* %7, i64 -24
  %9 = bitcast i8* %8 to i64*
  %10 = load i64, i64* %9, align 8
  %11 = bitcast %"class.std::basic_istream"* %5 to i8*
  %12 = add nsw i64 %10, 32
  %13 = getelementptr inbounds i8, i8* %11, i64 %12
  %14 = bitcast i8* %13 to i32*
  %15 = load i32, i32* %14, align 8, !tbaa !8
  %16 = and i32 %15, 5
  %17 = icmp eq i32 %16, 0
  br i1 %17, label %18, label %132

18:                                               ; preds = %0, %115
  %19 = load i32, i32* %2, align 4, !tbaa !18
  call void @llvm.lifetime.start.p0i8(i64 4000, i8* nonnull %4) #8
  %20 = add i32 %19, 9
  %21 = icmp ult i32 %20, 19
  br i1 %21, label %24, label %36

22:                                               ; preds = %36
  %23 = trunc i64 %42 to i32
  br label %24

24:                                               ; preds = %22, %18
  %25 = phi i32 [ %19, %18 ], [ %39, %22 ]
  %26 = phi i32 [ 0, %18 ], [ %23, %22 ]
  %27 = zext i32 %26 to i64
  %28 = getelementptr inbounds [1000 x i32], [1000 x i32]* %1, i64 0, i64 %27
  store i32 %25, i32* %28, align 4, !tbaa !18
  %29 = add i32 %26, 1
  %30 = zext i32 %29 to i64
  %31 = add nsw i64 %30, -1
  %32 = and i64 %30, 3
  %33 = icmp ult i64 %31, 3
  br i1 %33, label %71, label %34

34:                                               ; preds = %24
  %35 = and i64 %30, 4294967292
  br label %45

36:                                               ; preds = %18, %36
  %37 = phi i64 [ %42, %36 ], [ 0, %18 ]
  %38 = phi i32 [ %39, %36 ], [ %19, %18 ]
  %39 = sdiv i32 %38, 10
  %40 = srem i32 %38, 10
  %41 = getelementptr inbounds [1000 x i32], [1000 x i32]* %1, i64 0, i64 %37
  store i32 %40, i32* %41, align 4, !tbaa !18
  %42 = add nuw i64 %37, 1
  %43 = add nsw i32 %39, 9
  %44 = icmp ult i32 %43, 19
  br i1 %44, label %22, label %36, !llvm.loop !19

45:                                               ; preds = %45, %34
  %46 = phi i64 [ 0, %34 ], [ %68, %45 ]
  %47 = phi i32 [ 0, %34 ], [ %67, %45 ]
  %48 = phi i64 [ %35, %34 ], [ %69, %45 ]
  %49 = mul nsw i32 %47, 10
  %50 = getelementptr inbounds [1000 x i32], [1000 x i32]* %1, i64 0, i64 %46
  %51 = load i32, i32* %50, align 16, !tbaa !18
  %52 = add nsw i32 %51, %49
  %53 = or i64 %46, 1
  %54 = mul nsw i32 %52, 10
  %55 = getelementptr inbounds [1000 x i32], [1000 x i32]* %1, i64 0, i64 %53
  %56 = load i32, i32* %55, align 4, !tbaa !18
  %57 = add nsw i32 %56, %54
  %58 = or i64 %46, 2
  %59 = mul nsw i32 %57, 10
  %60 = getelementptr inbounds [1000 x i32], [1000 x i32]* %1, i64 0, i64 %58
  %61 = load i32, i32* %60, align 8, !tbaa !18
  %62 = add nsw i32 %61, %59
  %63 = or i64 %46, 3
  %64 = mul nsw i32 %62, 10
  %65 = getelementptr inbounds [1000 x i32], [1000 x i32]* %1, i64 0, i64 %63
  %66 = load i32, i32* %65, align 4, !tbaa !18
  %67 = add nsw i32 %66, %64
  %68 = add nuw nsw i64 %46, 4
  %69 = add i64 %48, -4
  %70 = icmp eq i64 %69, 0
  br i1 %70, label %71, label %45, !llvm.loop !21

71:                                               ; preds = %45, %24
  %72 = phi i32 [ undef, %24 ], [ %67, %45 ]
  %73 = phi i64 [ 0, %24 ], [ %68, %45 ]
  %74 = phi i32 [ 0, %24 ], [ %67, %45 ]
  %75 = icmp eq i64 %32, 0
  br i1 %75, label %87, label %76

76:                                               ; preds = %71, %76
  %77 = phi i64 [ %84, %76 ], [ %73, %71 ]
  %78 = phi i32 [ %83, %76 ], [ %74, %71 ]
  %79 = phi i64 [ %85, %76 ], [ %32, %71 ]
  %80 = mul nsw i32 %78, 10
  %81 = getelementptr inbounds [1000 x i32], [1000 x i32]* %1, i64 0, i64 %77
  %82 = load i32, i32* %81, align 4, !tbaa !18
  %83 = add nsw i32 %82, %80
  %84 = add nuw nsw i64 %77, 1
  %85 = add i64 %79, -1
  %86 = icmp eq i64 %85, 0
  br i1 %86, label %87, label %76, !llvm.loop !22

87:                                               ; preds = %76, %71
  %88 = phi i32 [ %72, %71 ], [ %83, %76 ]
  call void @llvm.lifetime.end.p0i8(i64 4000, i8* nonnull %4) #8
  %89 = call nonnull align 8 dereferenceable(8) %"class.std::basic_ostream"* @_ZNSolsEi(%"class.std::basic_ostream"* nonnull align 8 dereferenceable(8) @_ZSt4cout, i32 %88)
  %90 = bitcast %"class.std::basic_ostream"* %89 to i8**
  %91 = load i8*, i8** %90, align 8, !tbaa !5
  %92 = getelementptr i8, i8* %91, i64 -24
  %93 = bitcast i8* %92 to i64*
  %94 = load i64, i64* %93, align 8
  %95 = bitcast %"class.std::basic_ostream"* %89 to i8*
  %96 = add nsw i64 %94, 240
  %97 = getelementptr inbounds i8, i8* %95, i64 %96
  %98 = bitcast i8* %97 to %"class.std::ctype"**
  %99 = load %"class.std::ctype"*, %"class.std::ctype"** %98, align 8, !tbaa !24
  %100 = icmp eq %"class.std::ctype"* %99, null
  br i1 %100, label %101, label %102

101:                                              ; preds = %87
  call void @_ZSt16__throw_bad_castv() #9
  unreachable

102:                                              ; preds = %87
  %103 = getelementptr inbounds %"class.std::ctype", %"class.std::ctype"* %99, i64 0, i32 8
  %104 = load i8, i8* %103, align 8, !tbaa !27
  %105 = icmp eq i8 %104, 0
  br i1 %105, label %109, label %106

106:                                              ; preds = %102
  %107 = getelementptr inbounds %"class.std::ctype", %"class.std::ctype"* %99, i64 0, i32 9, i64 10
  %108 = load i8, i8* %107, align 1, !tbaa !29
  br label %115

109:                                              ; preds = %102
  call void @_ZNKSt5ctypeIcE13_M_widen_initEv(%"class.std::ctype"* nonnull align 8 dereferenceable(570) %99)
  %110 = bitcast %"class.std::ctype"* %99 to i8 (%"class.std::ctype"*, i8)***
  %111 = load i8 (%"class.std::ctype"*, i8)**, i8 (%"class.std::ctype"*, i8)*** %110, align 8, !tbaa !5
  %112 = getelementptr inbounds i8 (%"class.std::ctype"*, i8)*, i8 (%"class.std::ctype"*, i8)** %111, i64 6
  %113 = load i8 (%"class.std::ctype"*, i8)*, i8 (%"class.std::ctype"*, i8)** %112, align 8
  %114 = call signext i8 %113(%"class.std::ctype"* nonnull align 8 dereferenceable(570) %99, i8 signext 10)
  br label %115

115:                                              ; preds = %106, %109
  %116 = phi i8 [ %108, %106 ], [ %114, %109 ]
  %117 = call nonnull align 8 dereferenceable(8) %"class.std::basic_ostream"* @_ZNSo3putEc(%"class.std::basic_ostream"* nonnull align 8 dereferenceable(8) %89, i8 signext %116)
  %118 = call nonnull align 8 dereferenceable(8) %"class.std::basic_ostream"* @_ZNSo5flushEv(%"class.std::basic_ostream"* nonnull align 8 dereferenceable(8) %117)
  %119 = call nonnull align 8 dereferenceable(16) %"class.std::basic_istream"* @_ZNSirsERi(%"class.std::basic_istream"* nonnull align 8 dereferenceable(16) @_ZSt3cin, i32* nonnull align 4 dereferenceable(4) %2)
  %120 = bitcast %"class.std::basic_istream"* %119 to i8**
  %121 = load i8*, i8** %120, align 8, !tbaa !5
  %122 = getelementptr i8, i8* %121, i64 -24
  %123 = bitcast i8* %122 to i64*
  %124 = load i64, i64* %123, align 8
  %125 = bitcast %"class.std::basic_istream"* %119 to i8*
  %126 = add nsw i64 %124, 32
  %127 = getelementptr inbounds i8, i8* %125, i64 %126
  %128 = bitcast i8* %127 to i32*
  %129 = load i32, i32* %128, align 8, !tbaa !8
  %130 = and i32 %129, 5
  %131 = icmp eq i32 %130, 0
  br i1 %131, label %18, label %132, !llvm.loop !30

132:                                              ; preds = %115, %0
  call void @llvm.lifetime.end.p0i8(i64 4, i8* nonnull %3) #8
  ret i32 0
}

; Function Attrs: argmemonly mustprogress nofree nosync nounwind willreturn
declare void @llvm.lifetime.start.p0i8(i64 immarg, i8* nocapture) #4

declare nonnull align 8 dereferenceable(16) %"class.std::basic_istream"* @_ZNSirsERi(%"class.std::basic_istream"* nonnull align 8 dereferenceable(16), i32* nonnull align 4 dereferenceable(4)) local_unnamed_addr #0

; Function Attrs: mustprogress nofree nosync nounwind readnone sspstrong uwtable willreturn
define dso_local i32 @_Z7reversei(i32 %0) local_unnamed_addr #5 {
  %2 = alloca [1000 x i32], align 16
  %3 = bitcast [1000 x i32]* %2 to i8*
  call void @llvm.lifetime.start.p0i8(i64 4000, i8* nonnull %3) #8
  %4 = add i32 %0, 9
  %5 = icmp ult i32 %4, 19
  br i1 %5, label %8, label %20

6:                                                ; preds = %20
  %7 = trunc i64 %26 to i32
  br label %8

8:                                                ; preds = %6, %1
  %9 = phi i32 [ %0, %1 ], [ %23, %6 ]
  %10 = phi i32 [ 0, %1 ], [ %7, %6 ]
  %11 = zext i32 %10 to i64
  %12 = getelementptr inbounds [1000 x i32], [1000 x i32]* %2, i64 0, i64 %11
  store i32 %9, i32* %12, align 4, !tbaa !18
  %13 = add i32 %10, 1
  %14 = zext i32 %13 to i64
  %15 = add nsw i64 %14, -1
  %16 = and i64 %14, 3
  %17 = icmp ult i64 %15, 3
  br i1 %17, label %55, label %18

18:                                               ; preds = %8
  %19 = and i64 %14, 4294967292
  br label %29

20:                                               ; preds = %1, %20
  %21 = phi i64 [ %26, %20 ], [ 0, %1 ]
  %22 = phi i32 [ %23, %20 ], [ %0, %1 ]
  %23 = sdiv i32 %22, 10
  %24 = srem i32 %22, 10
  %25 = getelementptr inbounds [1000 x i32], [1000 x i32]* %2, i64 0, i64 %21
  store i32 %24, i32* %25, align 4, !tbaa !18
  %26 = add nuw i64 %21, 1
  %27 = add nsw i32 %23, 9
  %28 = icmp ult i32 %27, 19
  br i1 %28, label %6, label %20, !llvm.loop !19

29:                                               ; preds = %29, %18
  %30 = phi i64 [ 0, %18 ], [ %52, %29 ]
  %31 = phi i32 [ 0, %18 ], [ %51, %29 ]
  %32 = phi i64 [ %19, %18 ], [ %53, %29 ]
  %33 = mul nsw i32 %31, 10
  %34 = getelementptr inbounds [1000 x i32], [1000 x i32]* %2, i64 0, i64 %30
  %35 = load i32, i32* %34, align 16, !tbaa !18
  %36 = add nsw i32 %35, %33
  %37 = or i64 %30, 1
  %38 = mul nsw i32 %36, 10
  %39 = getelementptr inbounds [1000 x i32], [1000 x i32]* %2, i64 0, i64 %37
  %40 = load i32, i32* %39, align 4, !tbaa !18
  %41 = add nsw i32 %40, %38
  %42 = or i64 %30, 2
  %43 = mul nsw i32 %41, 10
  %44 = getelementptr inbounds [1000 x i32], [1000 x i32]* %2, i64 0, i64 %42
  %45 = load i32, i32* %44, align 8, !tbaa !18
  %46 = add nsw i32 %45, %43
  %47 = or i64 %30, 3
  %48 = mul nsw i32 %46, 10
  %49 = getelementptr inbounds [1000 x i32], [1000 x i32]* %2, i64 0, i64 %47
  %50 = load i32, i32* %49, align 4, !tbaa !18
  %51 = add nsw i32 %50, %48
  %52 = add nuw nsw i64 %30, 4
  %53 = add i64 %32, -4
  %54 = icmp eq i64 %53, 0
  br i1 %54, label %55, label %29, !llvm.loop !21

55:                                               ; preds = %29, %8
  %56 = phi i32 [ undef, %8 ], [ %51, %29 ]
  %57 = phi i64 [ 0, %8 ], [ %52, %29 ]
  %58 = phi i32 [ 0, %8 ], [ %51, %29 ]
  %59 = icmp eq i64 %16, 0
  br i1 %59, label %71, label %60

60:                                               ; preds = %55, %60
  %61 = phi i64 [ %68, %60 ], [ %57, %55 ]
  %62 = phi i32 [ %67, %60 ], [ %58, %55 ]
  %63 = phi i64 [ %69, %60 ], [ %16, %55 ]
  %64 = mul nsw i32 %62, 10
  %65 = getelementptr inbounds [1000 x i32], [1000 x i32]* %2, i64 0, i64 %61
  %66 = load i32, i32* %65, align 4, !tbaa !18
  %67 = add nsw i32 %66, %64
  %68 = add nuw nsw i64 %61, 1
  %69 = add i64 %63, -1
  %70 = icmp eq i64 %69, 0
  br i1 %70, label %71, label %60, !llvm.loop !31

71:                                               ; preds = %60, %55
  %72 = phi i32 [ %56, %55 ], [ %67, %60 ]
  call void @llvm.lifetime.end.p0i8(i64 4000, i8* nonnull %3) #8
  ret i32 %72
}

declare nonnull align 8 dereferenceable(8) %"class.std::basic_ostream"* @_ZNSolsEi(%"class.std::basic_ostream"* nonnull align 8 dereferenceable(8), i32) local_unnamed_addr #0

; Function Attrs: argmemonly mustprogress nofree nosync nounwind willreturn
declare void @llvm.lifetime.end.p0i8(i64 immarg, i8* nocapture) #4

declare nonnull align 8 dereferenceable(8) %"class.std::basic_ostream"* @_ZNSo3putEc(%"class.std::basic_ostream"* nonnull align 8 dereferenceable(8), i8 signext) local_unnamed_addr #0

declare nonnull align 8 dereferenceable(8) %"class.std::basic_ostream"* @_ZNSo5flushEv(%"class.std::basic_ostream"* nonnull align 8 dereferenceable(8)) local_unnamed_addr #0

; Function Attrs: noreturn
declare void @_ZSt16__throw_bad_castv() local_unnamed_addr #6

declare void @_ZNKSt5ctypeIcE13_M_widen_initEv(%"class.std::ctype"* nonnull align 8 dereferenceable(570)) local_unnamed_addr #0

; Function Attrs: sspstrong uwtable
define internal void @_GLOBAL__sub_I_657.cpp() #7 section ".text.startup" {
  tail call void @_ZNSt8ios_base4InitC1Ev(%"class.std::ios_base::Init"* nonnull align 1 dereferenceable(1) @_ZStL8__ioinit)
  %1 = tail call i32 @__cxa_atexit(void (i8*)* bitcast (void (%"class.std::ios_base::Init"*)* @_ZNSt8ios_base4InitD1Ev to void (i8*)*), i8* getelementptr inbounds (%"class.std::ios_base::Init", %"class.std::ios_base::Init"* @_ZStL8__ioinit, i64 0, i32 0), i8* nonnull @__dso_handle) #8
  ret void
}


!llvm.module.flags = !{!0, !1, !2, !3}
!llvm.ident = !{!4}

!0 = !{i32 1, !"wchar_size", i32 4}
!1 = !{i32 7, !"PIC Level", i32 2}
!2 = !{i32 7, !"PIE Level", i32 2}
!3 = !{i32 7, !"uwtable", i32 1}
!4 = !{!"clang version 13.0.0"}
!5 = !{!6, !6, i64 0}
!6 = !{!"vtable pointer", !7, i64 0}
!7 = !{!"Simple C++ TBAA"}
!8 = !{!9, !13, i64 32}
!9 = !{!"_ZTSSt8ios_base", !10, i64 8, !10, i64 16, !12, i64 24, !13, i64 28, !13, i64 32, !14, i64 40, !15, i64 48, !11, i64 64, !16, i64 192, !14, i64 200, !17, i64 208}
!10 = !{!"long", !11, i64 0}
!11 = !{!"omnipotent char", !7, i64 0}
!12 = !{!"_ZTSSt13_Ios_Fmtflags", !11, i64 0}
!13 = !{!"_ZTSSt12_Ios_Iostate", !11, i64 0}
!14 = !{!"any pointer", !11, i64 0}
!15 = !{!"_ZTSNSt8ios_base6_WordsE", !14, i64 0, !10, i64 8}
!16 = !{!"int", !11, i64 0}
!17 = !{!"_ZTSSt6locale", !14, i64 0}
!18 = !{!16, !16, i64 0}
!19 = distinct !{!19, !20}
!20 = !{!"llvm.loop.mustprogress"}
!21 = distinct !{!21, !20}
!22 = distinct !{!22, !23}
!23 = !{!"llvm.loop.unroll.disable"}
!24 = !{!25, !14, i64 240}
!25 = !{!"_ZTSSt9basic_iosIcSt11char_traitsIcEE", !14, i64 216, !11, i64 224, !26, i64 225, !14, i64 232, !14, i64 240, !14, i64 248, !14, i64 256}
!26 = !{!"bool", !11, i64 0}
!27 = !{!28, !11, i64 56}
!28 = !{!"_ZTSSt5ctypeIcE", !14, i64 16, !26, i64 24, !14, i64 32, !14, i64 40, !14, i64 48, !11, i64 56, !11, i64 57, !11, i64 313, !11, i64 569}
!29 = !{!11, !11, i64 0}
!30 = distinct !{!30, !20}
!31 = distinct !{!31, !23}
